target datalayout = "e-m:e-p270:32:32-p271:32:32-p272:64:64-i64:64-i128:128-f80:128-n8:16:32:64-S128"
target triple = "x86_64-pc-linux-gnu"

%struct._generic_N_Vector = type { ptr, ptr, ptr }
%struct._N_VectorContent_Serial = type { i64, i32, ptr }

; Function Attrs: nounwind uwtable
define internal i32 @fe(double noundef %0, ptr noundef %1, ptr noundef %2, ptr noundef %3) #0 {
  %5 = alloca double, align 8
  %6 = alloca ptr, align 8
  %7 = alloca ptr, align 8
  %8 = alloca ptr, align 8
  %9 = alloca ptr, align 8
  %10 = alloca double, align 8
  %11 = alloca double, align 8
  %12 = alloca double, align 8
  %13 = alloca double, align 8
  store double %0, ptr %5, align 8, !tbaa !11
  store ptr %1, ptr %6, align 8, !tbaa !21
  store ptr %2, ptr %7, align 8, !tbaa !21
  store ptr %3, ptr %8, align 8, !tbaa !25
  call void @llvm.lifetime.start.p0(i64 8, ptr %9) #6
  %14 = load ptr, ptr %8, align 8, !tbaa !25
  store ptr %14, ptr %9, align 8, !tbaa !36
  call void @llvm.lifetime.start.p0(i64 8, ptr %10) #6
  %15 = load ptr, ptr %9, align 8, !tbaa !36
  %16 = getelementptr inbounds double, ptr %15, i64 0
  %17 = load double, ptr %16, align 8, !tbaa !11
  store double %17, ptr %10, align 8, !tbaa !11
  call void @llvm.lifetime.start.p0(i64 8, ptr %11) #6
  %18 = load ptr, ptr %6, align 8, !tbaa !21
  %19 = getelementptr inbounds nuw %struct._generic_N_Vector, ptr %18, i32 0, i32 0
  %20 = load ptr, ptr %19, align 8, !tbaa !26
  %21 = getelementptr inbounds nuw %struct._N_VectorContent_Serial, ptr %20, i32 0, i32 2
  %22 = load ptr, ptr %21, align 8, !tbaa !29
  %23 = getelementptr inbounds double, ptr %22, i64 0
  %24 = load double, ptr %23, align 8, !tbaa !11
  store double %24, ptr %11, align 8, !tbaa !11
  call void @llvm.lifetime.start.p0(i64 8, ptr %12) #6
  %25 = load ptr, ptr %6, align 8, !tbaa !21
  %26 = getelementptr inbounds nuw %struct._generic_N_Vector, ptr %25, i32 0, i32 0
  %27 = load ptr, ptr %26, align 8, !tbaa !26
  %28 = getelementptr inbounds nuw %struct._N_VectorContent_Serial, ptr %27, i32 0, i32 2
  %29 = load ptr, ptr %28, align 8, !tbaa !29
  %30 = getelementptr inbounds double, ptr %29, i64 1
  %31 = load double, ptr %30, align 8, !tbaa !11
  store double %31, ptr %12, align 8, !tbaa !11
  call void @llvm.lifetime.start.p0(i64 8, ptr %13) #6
  %32 = load ptr, ptr %6, align 8, !tbaa !21
  %33 = getelementptr inbounds nuw %struct._generic_N_Vector, ptr %32, i32 0, i32 0
  %34 = load ptr, ptr %33, align 8, !tbaa !26
  %35 = getelementptr inbounds nuw %struct._N_VectorContent_Serial, ptr %34, i32 0, i32 2
  %36 = load ptr, ptr %35, align 8, !tbaa !29
  %37 = getelementptr inbounds double, ptr %36, i64 2
  %38 = load double, ptr %37, align 8, !tbaa !11
  store double %38, ptr %13, align 8, !tbaa !11
  %39 = load double, ptr %10, align 8, !tbaa !11
  %40 = load double, ptr %13, align 8, !tbaa !11
  %41 = fadd double %40, 1.000000e+00
  %42 = load double, ptr %11, align 8, !tbaa !11
  %43 = fneg double %41
  %44 = call double @llvm.fmuladd.f64(double %43, double %42, double %39)
  %45 = load double, ptr %12, align 8, !tbaa !11
  %46 = load double, ptr %11, align 8, !tbaa !11
  %47 = fmul double %45, %46
  %48 = load double, ptr %11, align 8, !tbaa !11
  %49 = call double @llvm.fmuladd.f64(double %47, double %48, double %44)
  %50 = load ptr, ptr %7, align 8, !tbaa !21
  %51 = getelementptr inbounds nuw %struct._generic_N_Vector, ptr %50, i32 0, i32 0
  %52 = load ptr, ptr %51, align 8, !tbaa !26
  %53 = getelementptr inbounds nuw %struct._N_VectorContent_Serial, ptr %52, i32 0, i32 2
  %54 = load ptr, ptr %53, align 8, !tbaa !29
  %55 = getelementptr inbounds double, ptr %54, i64 0
  store double %49, ptr %55, align 8, !tbaa !11
  %56 = load double, ptr %13, align 8, !tbaa !11
  %57 = load double, ptr %11, align 8, !tbaa !11
  %58 = load double, ptr %12, align 8, !tbaa !11
  %59 = load double, ptr %11, align 8, !tbaa !11
  %60 = fmul double %58, %59
  %61 = load double, ptr %11, align 8, !tbaa !11
  %62 = fmul double %60, %61
  %63 = fneg double %62
  %64 = call double @llvm.fmuladd.f64(double %56, double %57, double %63)
  %65 = load ptr, ptr %7, align 8, !tbaa !21
  %66 = getelementptr inbounds nuw %struct._generic_N_Vector, ptr %65, i32 0, i32 0
  %67 = load ptr, ptr %66, align 8, !tbaa !26
  %68 = getelementptr inbounds nuw %struct._N_VectorContent_Serial, ptr %67, i32 0, i32 2
  %69 = load ptr, ptr %68, align 8, !tbaa !29
  %70 = getelementptr inbounds double, ptr %69, i64 1
  store double %64, ptr %70, align 8, !tbaa !11
  %71 = load double, ptr %13, align 8, !tbaa !11
  %72 = fneg double %71
  %73 = load double, ptr %11, align 8, !tbaa !11
  %74 = fmul double %72, %73
  %75 = load ptr, ptr %7, align 8, !tbaa !21
  %76 = getelementptr inbounds nuw %struct._generic_N_Vector, ptr %75, i32 0, i32 0
  %77 = load ptr, ptr %76, align 8, !tbaa !26
  %78 = getelementptr inbounds nuw %struct._N_VectorContent_Serial, ptr %77, i32 0, i32 2
  %79 = load ptr, ptr %78, align 8, !tbaa !29
  %80 = getelementptr inbounds double, ptr %79, i64 2
  store double %74, ptr %80, align 8, !tbaa !11
  call void @llvm.lifetime.end.p0(i64 8, ptr %13) #6
  call void @llvm.lifetime.end.p0(i64 8, ptr %12) #6
  call void @llvm.lifetime.end.p0(i64 8, ptr %11) #6
  call void @llvm.lifetime.end.p0(i64 8, ptr %10) #6
  call void @llvm.lifetime.end.p0(i64 8, ptr %9) #6
  ret i32 0
}